Certificate:
    Data:
        Version: 3 (0x2)
        Serial Number:
            4c:13:2f:24:a4:f8:6d:b8:df:aa:83:2c:4a:85:45:a0
        Signature Algorithm: sha256WithRSAEncryption
        Issuer: C=US, ST=CA, O=Comp 429, CN=Root CA
        Validity
            Not Before: May 15 03:03:08 2021 GMT
            Not After : May 13 03:03:08 2031 GMT
        Subject: C=US, ST=California, O=Comp 429, OU=Sean Blanchard, CN=Sean blanchard/emailAddress=yadayada@yada
        Subject Public Key Info:
            Public Key Algorithm: rsaEncryption
                RSA Public-Key: (2048 bit)
                Modulus:
                    00:b1:26:5d:17:57:46:13:ff:8d:c9:19:aa:44:22:
                    1b:72:e5:32:5a:91:34:51:e6:80:6e:00:d0:d4:05:
                    c4:56:6a:79:bc:40:3f:dd:70:ac:95:d7:a3:45:7a:
                    26:5c:d7:5a:ae:b8:86:aa:c0:e8:2b:43:f7:2a:57:
                    db:37:55:97:1f:8c:86:d6:81:1a:4c:2e:91:49:ff:
                    a9:fa:9c:83:27:a7:63:df:0a:31:df:db:7f:cf:f4:
                    e8:c2:7d:5f:2a:9a:86:17:aa:c0:db:d6:6e:78:8d:
                    51:3b:b1:a7:8b:0a:4c:1e:5d:7c:b7:fe:30:65:13:
                    ba:0a:6d:85:13:99:79:d0:59:66:6d:1d:6e:98:7e:
                    0b:e1:ae:cb:94:30:8c:e5:01:a6:53:36:e7:cc:b4:
                    b0:64:8f:74:bd:9e:8e:d9:56:11:b6:23:af:ae:7c:
                    73:46:43:c3:e8:cd:91:a1:51:6e:c9:0c:bc:56:1a:
                    26:7c:46:9f:52:38:c7:17:2c:af:2f:fe:26:53:58:
                    d0:50:64:df:ae:7b:83:3d:14:55:a0:28:44:1b:dd:
                    03:5a:d7:04:64:86:bd:e8:0f:5b:5e:10:a4:e2:41:
                    f3:b3:ff:62:4b:1b:38:2a:f0:13:db:de:a0:fe:ca:
                    e4:36:ec:9c:22:37:53:02:10:80:57:06:5a:0b:81:
                    13:4b
                Exponent: 65537 (0x10001)
        X509v3 extensions:
            Authority Information Access: 
                CA Issuers - URI:http://root-ca.home/root-ca.crt
                OCSP - URI:http://ocsp.root-ca.home:9080

            X509v3 Authority Key Identifier: 
                keyid:3A:9A:72:8F:09:4B:69:55:A8:3D:05:70:83:7C:79:08:A1:01:76:A0

            X509v3 Basic Constraints: critical
                CA:FALSE
            X509v3 CRL Distribution Points: 

                Full Name:
                  URI:http://root-ca.home/root-ca.crl

            X509v3 Extended Key Usage: 
                TLS Web Client Authentication, TLS Web Server Authentication
            X509v3 Key Usage: critical
                Digital Signature, Key Encipherment
            X509v3 Subject Key Identifier: 
                15:90:9F:8C:66:3E:61:0B:60:7C:DE:06:41:C7:C3:4B:EB:54:00:F8
    Signature Algorithm: sha256WithRSAEncryption
         80:8b:37:4b:b7:a7:67:d5:58:de:2b:f0:a9:af:31:38:57:56:
         f0:95:05:04:c2:b3:e1:57:fb:f8:5e:30:9f:74:63:a4:c0:ca:
         ab:96:df:75:de:a6:20:2b:fa:13:9c:b6:ae:1f:2a:30:84:92:
         37:bd:aa:a7:74:ef:7e:34:9b:14:b3:1c:91:64:d2:4f:8e:ad:
         c2:f0:01:57:80:92:d5:4b:2e:98:b8:04:61:b6:e1:b6:66:49:
         ec:7e:c2:3b:b0:2c:7a:d0:f1:84:af:9c:92:d4:1d:92:74:0a:
         04:11:09:9c:e5:96:d0:fd:52:f6:09:49:d2:cd:ee:26:f8:ff:
         c6:d4:ab:5f:17:95:c6:04:5f:a6:e3:2a:ce:29:38:70:01:39:
         68:b5:35:39:41:88:19:5e:80:0b:31:9f:88:bf:24:d2:a9:93:
         45:75:c5:55:cb:17:98:4b:4c:4d:be:53:c4:ed:e2:fa:cf:12:
         a9:1c:90:01:a9:48:45:11:0f:a6:eb:93:58:d4:c9:e8:18:a6:
         3e:6a:b7:3a:14:ca:c3:4c:0c:3f:92:71:1d:e7:6e:07:b2:98:
         2a:c0:7b:9a:94:36:cb:85:d9:7c:05:98:f0:38:f2:79:ac:91:
         d5:75:17:28:bd:45:dc:d7:4c:fc:73:bc:46:97:a7:60:17:44:
         39:f5:c3:3f:8c:ff:ec:09:6f:c4:cf:cd:b4:31:ae:ec:54:c4:
         c3:60:e6:76:59:4e:5a:3f:0c:e0:45:38:94:e6:d9:0e:8e:23:
         ca:26:4f:6e:cd:eb:d9:a6:ad:f5:e2:41:aa:d7:de:ee:90:af:
         7e:7e:9d:39:46:ca:1f:72:1d:79:39:c7:ea:7e:e4:32:ee:17:
         07:34:f3:2f:d0:f0:da:18:04:e8:90:18:4c:29:78:65:61:d3:
         97:dd:77:5b:16:a1:4e:ce:df:f4:5c:28:1f:7c:10:42:3b:39:
         3e:ca:27:93:dd:e1:1b:c7:40:ec:32:5e:f1:82:23:8f:6e:79:
         c8:6e:97:7a:2d:8b:a5:d0:6e:b0:4f:de:cb:0e:ba:d9:ba:71:
         08:7f:ce:ca:37:eb:19:80:59:4e:08:18:9b:bf:0c:da:f4:93:
         04:3d:40:d5:fb:ee:04:87:eb:aa:8f:5e:7a:a8:5f:50:18:9d:
         71:83:29:20:54:76:59:50:48:fb:bc:c2:07:69:6c:ca:ad:11:
         33:85:d9:27:99:33:1c:af:69:88:fa:16:1b:8b:fd:4f:65:3a:
         47:c8:1b:0e:fa:33:25:58:36:70:18:f5:55:5e:3d:4f:7c:2b:
         27:fd:b4:3b:17:9b:a7:bc:61:40:b0:20:45:05:56:3e:03:c2:
         9a:82:64:6f:d3:05:27:60
-----BEGIN CERTIFICATE-----
MIIFbDCCA1SgAwIBAgIQTBMvJKT4bbjfqoMsSoVFoDANBgkqhkiG9w0BAQsFADA/
MQswCQYDVQQGEwJVUzELMAkGA1UECAwCQ0ExETAPBgNVBAoMCENvbXAgNDI5MRAw
DgYDVQQDDAdSb290IENBMB4XDTIxMDUxNTAzMDMwOFoXDTMxMDUxMzAzMDMwOFow
gYUxCzAJBgNVBAYTAlVTMRMwEQYDVQQIDApDYWxpZm9ybmlhMREwDwYDVQQKDAhD
b21wIDQyOTEXMBUGA1UECwwOU2VhbiBCbGFuY2hhcmQxFzAVBgNVBAMMDlNlYW4g
YmxhbmNoYXJkMRwwGgYJKoZIhvcNAQkBFg15YWRheWFkYUB5YWRhMIIBIjANBgkq
hkiG9w0BAQEFAAOCAQ8AMIIBCgKCAQEAsSZdF1dGE/+NyRmqRCIbcuUyWpE0UeaA
bgDQ1AXEVmp5vEA/3XCsldejRXomXNdarriGqsDoK0P3KlfbN1WXH4yG1oEaTC6R
Sf+p+pyDJ6dj3wox39t/z/Town1fKpqGF6rA29ZueI1RO7GniwpMHl18t/4wZRO6
Cm2FE5l50FlmbR1umH4L4a7LlDCM5QGmUzbnzLSwZI90vZ6O2VYRtiOvrnxzRkPD
6M2RoVFuyQy8VhomfEafUjjHFyyvL/4mU1jQUGTfrnuDPRRVoChEG90DWtcEZIa9
6A9bXhCk4kHzs/9iSxs4KvAT296g/srkNuycIjdTAhCAVwZaC4ETSwIDAQABo4IB
GzCCARcwZgYIKwYBBQUHAQEEWjBYMCsGCCsGAQUFBzAChh9odHRwOi8vcm9vdC1j
YS5ob21lL3Jvb3QtY2EuY3J0MCkGCCsGAQUFBzABhh1odHRwOi8vb2NzcC5yb290
LWNhLmhvbWU6OTA4MDAfBgNVHSMEGDAWgBQ6mnKPCUtpVag9BXCDfHkIoQF2oDAM
BgNVHRMBAf8EAjAAMDAGA1UdHwQpMCcwJaAjoCGGH2h0dHA6Ly9yb290LWNhLmhv
bWUvcm9vdC1jYS5jcmwwHQYDVR0lBBYwFAYIKwYBBQUHAwIGCCsGAQUFBwMBMA4G
A1UdDwEB/wQEAwIFoDAdBgNVHQ4EFgQUFZCfjGY+YQtgfN4GQcfDS+tUAPgwDQYJ
KoZIhvcNAQELBQADggIBAICLN0u3p2fVWN4r8KmvMThXVvCVBQTCs+FX+/heMJ90
Y6TAyquW33XepiAr+hOctq4fKjCEkje9qqd07340mxSzHJFk0k+OrcLwAVeAktVL
Lpi4BGG24bZmSex+wjuwLHrQ8YSvnJLUHZJ0CgQRCZzlltD9UvYJSdLN7ib4/8bU
q18XlcYEX6bjKs4pOHABOWi1NTlBiBlegAsxn4i/JNKpk0V1xVXLF5hLTE2+U8Tt
4vrPEqkckAGpSEURD6brk1jUyegYpj5qtzoUysNMDD+ScR3nbgeymCrAe5qUNsuF
2XwFmPA48nmskdV1Fyi9RdzXTPxzvEaXp2AXRDn1wz+M/+wJb8TPzbQxruxUxMNg
5nZZTlo/DOBFOJTm2Q6OI8omT27N69mmrfXiQarX3u6Qr35+nTlGyh9yHXk5x+p+
5DLuFwc08y/Q8NoYBOiQGEwpeGVh05fdd1sWoU7O3/RcKB98EEI7OT7KJ5Pd4RvH
QOwyXvGCI49uechul3oti6XQbrBP3ssOutm6cQh/zso36xmAWU4IGJu/DNr0kwQ9
QNX77gSH66qPXnqoX1AYnXGDKSBUdllQSPu8wgdpbMqtETOF2SeZMxyvaYj6FhuL
/U9lOkfIGw76MyVYNnAY9VVePU98Kyf9tDsXm6e8YUCwIEUFVj4DwpqCZG/TBSdg
-----END CERTIFICATE-----
